; Function Attrs: nounwind uwtable
define dso_local i32 @uv_ip_name(ptr noundef %0, ptr noundef %1, i64 noundef %2) local_unnamed_addr #0 {
  %4 = load i16, ptr %0, align 2
  switch i16 %4, label %8 [
    i16 2, label %.sink.split
    i16 10, label %5
  ]

5:                                                ; preds = %3
  br label %.sink.split

.sink.split:                                      ; preds = %3, %5
  %.sink8 = phi i64 [ 8, %5 ], [ 4, %3 ]
  %.sink = phi i32 [ 10, %5 ], [ 2, %3 ]
  %6 = getelementptr inbounds nuw i8, ptr %0, i64 %.sink8
  %7 = tail call i32 @uv_inet_ntop(i32 noundef %.sink, ptr noundef nonnull %6, ptr noundef %1, i64 noundef %2) #26
  br label %8

8:                                                ; preds = %.sink.split, %3
  %.0 = phi i32 [ -97, %3 ], [ %7, %.sink.split ]
  ret i32 %.0
}